target datalayout = "e-m:e-p270:32:32-p271:32:32-p272:64:64-i64:64-i128:128-f80:128-n8:16:32:64-S128"
target triple = "x86_64-pc-linux-gnu"

%struct.config_set = type { %struct.hashmap, i32, %struct.configset_list }
%struct.hashmap = type { ptr, ptr, ptr, i32, i32, i32, i32, i8 }
%struct.configset_list = type { ptr, i32, i32 }
%struct.key_value_info = type { ptr, i32, i32, i32, ptr }
%struct.config_set_element = type { %struct.hashmap_entry, ptr, %struct.string_list }
%struct.hashmap_entry = type { ptr, i32 }
%struct.string_list = type { ptr, i64, i64, i8, ptr }
%struct.string_list_item = type { ptr, ptr }

; Function Attrs: inlinehint nounwind uwtable
define internal ptr @container_of_or_null_offset(ptr noundef %0, i64 noundef %1) #6 {
  %3 = alloca ptr, align 8
  %4 = alloca i64, align 8
  store ptr %0, ptr %3, align 8, !tbaa !30
  store i64 %1, ptr %4, align 8, !tbaa !19
  %5 = load ptr, ptr %3, align 8, !tbaa !30
  %6 = icmp ne ptr %5, null
  br i1 %6, label %7, label %12

7:                                                ; preds = %2
  %8 = load ptr, ptr %3, align 8, !tbaa !30
  %9 = load i64, ptr %4, align 8, !tbaa !19
  %10 = sub i64 0, %9
  %11 = getelementptr inbounds i8, ptr %8, i64 %10
  br label %13

12:                                               ; preds = %2
  br label %13

13:                                               ; preds = %12, %7
  %14 = phi ptr [ %11, %7 ], [ null, %12 ]
  ret ptr %14
}

; Function Attrs: inlinehint nounwind uwtable
define internal void @hashmap_entry_init(ptr noundef %0, i32 noundef %1) #6 {
  %3 = alloca ptr, align 8
  %4 = alloca i32, align 4
  store ptr %0, ptr %3, align 8, !tbaa !115
  store i32 %1, ptr %4, align 4, !tbaa !13
  %5 = load i32, ptr %4, align 4, !tbaa !13
  %6 = load ptr, ptr %3, align 8, !tbaa !115
  %7 = getelementptr inbounds nuw %struct.hashmap_entry, ptr %6, i32 0, i32 1
  store i32 %5, ptr %7, align 8, !tbaa !227
  %8 = load ptr, ptr %3, align 8, !tbaa !115
  %9 = getelementptr inbounds nuw %struct.hashmap_entry, ptr %8, i32 0, i32 0
  store ptr null, ptr %9, align 8, !tbaa !228
  ret void
}

; Function Attrs: nounwind uwtable
define internal i32 @configset_find_element(ptr noundef %0, ptr noundef %1, ptr noundef %2) #0 {
  %4 = alloca i32, align 4
  %5 = alloca ptr, align 8
  %6 = alloca ptr, align 8
  %7 = alloca ptr, align 8
  %8 = alloca %struct.config_set_element, align 8
  %9 = alloca ptr, align 8
  %10 = alloca ptr, align 8
  %11 = alloca i32, align 4
  %12 = alloca i32, align 4
  store ptr %0, ptr %5, align 8, !tbaa !107
  store ptr %1, ptr %6, align 8, !tbaa !4
  store ptr %2, ptr %7, align 8, !tbaa !139
  call void @llvm.lifetime.start.p0(i64 64, ptr %8) #13
  call void @llvm.lifetime.start.p0(i64 8, ptr %9) #13
  call void @llvm.lifetime.start.p0(i64 8, ptr %10) #13
  call void @llvm.lifetime.start.p0(i64 4, ptr %11) #13
  %13 = load ptr, ptr %6, align 8, !tbaa !4
  %14 = call i32 @git_config_parse_key(ptr noundef %13, ptr noundef %10, ptr noundef null)
  store i32 %14, ptr %11, align 4, !tbaa !13
  %15 = load i32, ptr %11, align 4, !tbaa !13
  %16 = icmp ne i32 %15, 0
  br i1 %16, label %17, label %19

17:                                               ; preds = %3
  %18 = load i32, ptr %11, align 4, !tbaa !13
  store i32 %18, ptr %4, align 4
  store i32 1, ptr %12, align 4
  br label %33

19:                                               ; preds = %3
  %20 = getelementptr inbounds nuw %struct.config_set_element, ptr %8, i32 0, i32 0
  %21 = load ptr, ptr %10, align 8, !tbaa !4
  %22 = call i32 @strhash(ptr noundef %21)
  call void @hashmap_entry_init(ptr noundef %20, i32 noundef %22)
  %23 = load ptr, ptr %10, align 8, !tbaa !4
  %24 = getelementptr inbounds nuw %struct.config_set_element, ptr %8, i32 0, i32 1
  store ptr %23, ptr %24, align 8, !tbaa !119
  %25 = load ptr, ptr %5, align 8, !tbaa !107
  %26 = getelementptr inbounds nuw %struct.config_set, ptr %25, i32 0, i32 0
  %27 = getelementptr inbounds nuw %struct.config_set_element, ptr %8, i32 0, i32 0
  %28 = call ptr @hashmap_get(ptr noundef %26, ptr noundef %27, ptr noundef null)
  %29 = call ptr @container_of_or_null_offset(ptr noundef %28, i64 noundef 0)
  store ptr %29, ptr %9, align 8, !tbaa !117
  %30 = load ptr, ptr %10, align 8, !tbaa !4
  call void @free(ptr noundef %30) #13
  %31 = load ptr, ptr %9, align 8, !tbaa !117
  %32 = load ptr, ptr %7, align 8, !tbaa !139
  store ptr %31, ptr %32, align 8, !tbaa !117
  store i32 0, ptr %4, align 4
  store i32 1, ptr %12, align 4
  br label %33

33:                                               ; preds = %19, %17
  call void @llvm.lifetime.end.p0(i64 4, ptr %11) #13
  call void @llvm.lifetime.end.p0(i64 8, ptr %10) #13
  call void @llvm.lifetime.end.p0(i64 8, ptr %9) #13
  call void @llvm.lifetime.end.p0(i64 64, ptr %8) #13
  %34 = load i32, ptr %4, align 4
  ret i32 %34
}

; Function Attrs: nounwind uwtable
define dso_local i32 @git_configset_get_value_multi(ptr noundef %0, ptr noundef %1, ptr noundef %2) #0 {
  %4 = alloca i32, align 4
  %5 = alloca ptr, align 8
  %6 = alloca ptr, align 8
  %7 = alloca ptr, align 8
  %8 = alloca ptr, align 8
  %9 = alloca i32, align 4
  %10 = alloca i32, align 4
  store ptr %0, ptr %5, align 8, !tbaa !107
  store ptr %1, ptr %6, align 8, !tbaa !4
  store ptr %2, ptr %7, align 8, !tbaa !137
  call void @llvm.lifetime.start.p0(i64 8, ptr %8) #13
  call void @llvm.lifetime.start.p0(i64 4, ptr %9) #13
  %11 = load ptr, ptr %5, align 8, !tbaa !107
  %12 = load ptr, ptr %6, align 8, !tbaa !4
  %13 = call i32 @configset_find_element(ptr noundef %11, ptr noundef %12, ptr noundef %8)
  store i32 %13, ptr %9, align 4, !tbaa !13
  %14 = icmp ne i32 %13, 0
  br i1 %14, label %15, label %17

15:                                               ; preds = %3
  %16 = load i32, ptr %9, align 4, !tbaa !13
  store i32 %16, ptr %4, align 4
  store i32 1, ptr %10, align 4
  br label %26

17:                                               ; preds = %3
  %18 = load ptr, ptr %8, align 8, !tbaa !117
  %19 = icmp ne ptr %18, null
  br i1 %19, label %21, label %20

20:                                               ; preds = %17
  store i32 1, ptr %4, align 4
  store i32 1, ptr %10, align 4
  br label %26

21:                                               ; preds = %17
  br label %22

22:                                               ; preds = %21
  %23 = load ptr, ptr %8, align 8, !tbaa !117
  %24 = getelementptr inbounds nuw %struct.config_set_element, ptr %23, i32 0, i32 2
  %25 = load ptr, ptr %7, align 8, !tbaa !137
  store ptr %24, ptr %25, align 8, !tbaa !129
  store i32 0, ptr %4, align 4
  store i32 1, ptr %10, align 4
  br label %26

26:                                               ; preds = %22, %20, %15
  call void @llvm.lifetime.end.p0(i64 4, ptr %9) #13
  call void @llvm.lifetime.end.p0(i64 8, ptr %8) #13
  %27 = load i32, ptr %4, align 4
  ret i32 %27
}

; Function Attrs: nounwind uwtable
define dso_local i32 @git_config_int(ptr noundef %0, ptr noundef %1, ptr noundef %2) #0 {
  %4 = alloca ptr, align 8
  %5 = alloca ptr, align 8
  %6 = alloca ptr, align 8
  %7 = alloca i32, align 4
  store ptr %0, ptr %4, align 8, !tbaa !4
  store ptr %1, ptr %5, align 8, !tbaa !4
  store ptr %2, ptr %6, align 8, !tbaa !22
  call void @llvm.lifetime.start.p0(i64 4, ptr %7) #13
  %8 = load ptr, ptr %5, align 8, !tbaa !4
  %9 = call i32 @git_parse_int(ptr noundef %8, ptr noundef %7)
  %10 = icmp ne i32 %9, 0
  br i1 %10, label %15, label %11

11:                                               ; preds = %3
  %12 = load ptr, ptr %4, align 8, !tbaa !4
  %13 = load ptr, ptr %5, align 8, !tbaa !4
  %14 = load ptr, ptr %6, align 8, !tbaa !22
  call void @die_bad_number(ptr noundef %12, ptr noundef %13, ptr noundef %14) #15
  unreachable

15:                                               ; preds = %3
  %16 = load i32, ptr %7, align 4, !tbaa !13
  call void @llvm.lifetime.end.p0(i64 4, ptr %7) #13
  ret i32 %16
}

; Function Attrs: nounwind uwtable
define dso_local i32 @git_configset_get_value(ptr noundef %0, ptr noundef %1, ptr noundef %2, ptr noundef %3) #0 {
  %5 = alloca i32, align 4
  %6 = alloca ptr, align 8
  %7 = alloca ptr, align 8
  %8 = alloca ptr, align 8
  %9 = alloca ptr, align 8
  %10 = alloca ptr, align 8
  %11 = alloca i32, align 4
  %12 = alloca %struct.string_list_item, align 8
  %13 = alloca i32, align 4
  store ptr %0, ptr %6, align 8, !tbaa !107
  store ptr %1, ptr %7, align 8, !tbaa !4
  store ptr %2, ptr %8, align 8, !tbaa !15
  store ptr %3, ptr %9, align 8, !tbaa !22
  call void @llvm.lifetime.start.p0(i64 8, ptr %10) #13
  store ptr null, ptr %10, align 8, !tbaa !129
  call void @llvm.lifetime.start.p0(i64 4, ptr %11) #13
  call void @llvm.lifetime.start.p0(i64 16, ptr %12) #13
  %14 = load ptr, ptr %6, align 8, !tbaa !107
  %15 = load ptr, ptr %7, align 8, !tbaa !4
  %16 = call i32 @git_configset_get_value_multi(ptr noundef %14, ptr noundef %15, ptr noundef %10)
  store i32 %16, ptr %11, align 4, !tbaa !13
  %17 = icmp ne i32 %16, 0
  br i1 %17, label %18, label %20

18:                                               ; preds = %4
  %19 = load i32, ptr %11, align 4, !tbaa !13
  store i32 %19, ptr %5, align 4
  store i32 1, ptr %13, align 4
  br label %39

20:                                               ; preds = %4
  %21 = load ptr, ptr %10, align 8, !tbaa !129
  %22 = getelementptr inbounds nuw %struct.string_list, ptr %21, i32 0, i32 0
  %23 = load ptr, ptr %22, align 8, !tbaa !130
  %24 = load ptr, ptr %10, align 8, !tbaa !129
  %25 = getelementptr inbounds nuw %struct.string_list, ptr %24, i32 0, i32 1
  %26 = load i64, ptr %25, align 8, !tbaa !131
  %27 = sub i64 %26, 1
  %28 = getelementptr inbounds nuw %struct.string_list_item, ptr %23, i64 %27
  call void @llvm.memcpy.p0.p0.i64(ptr align 8 %12, ptr align 8 %28, i64 16, i1 false), !tbaa.struct !132
  %29 = getelementptr inbounds nuw %struct.string_list_item, ptr %12, i32 0, i32 0
  %30 = load ptr, ptr %29, align 8, !tbaa !133
  %31 = load ptr, ptr %8, align 8, !tbaa !15
  store ptr %30, ptr %31, align 8, !tbaa !4
  %32 = load ptr, ptr %9, align 8, !tbaa !22
  %33 = icmp ne ptr %32, null
  br i1 %33, label %34, label %38

34:                                               ; preds = %20
  %35 = load ptr, ptr %9, align 8, !tbaa !22
  %36 = getelementptr inbounds nuw %struct.string_list_item, ptr %12, i32 0, i32 1
  %37 = load ptr, ptr %36, align 8, !tbaa !135
  call void @llvm.memcpy.p0.p0.i64(ptr align 8 %35, ptr align 8 %37, i64 32, i1 false), !tbaa.struct !136
  br label %38

38:                                               ; preds = %34, %20
  store i32 0, ptr %5, align 4
  store i32 1, ptr %13, align 4
  br label %39

39:                                               ; preds = %38, %18
  call void @llvm.lifetime.end.p0(i64 16, ptr %12) #13
  call void @llvm.lifetime.end.p0(i64 4, ptr %11) #13
  call void @llvm.lifetime.end.p0(i64 8, ptr %10) #13
  %40 = load i32, ptr %5, align 4
  ret i32 %40
}

; Function Attrs: nounwind uwtable
define dso_local i32 @git_configset_get_int(ptr noundef %0, ptr noundef %1, ptr noundef %2) #0 {
  %4 = alloca i32, align 4
  %5 = alloca ptr, align 8
  %6 = alloca ptr, align 8
  %7 = alloca ptr, align 8
  %8 = alloca ptr, align 8
  %9 = alloca %struct.key_value_info, align 8
  %10 = alloca i32, align 4
  store ptr %0, ptr %5, align 8, !tbaa !107
  store ptr %1, ptr %6, align 8, !tbaa !4
  store ptr %2, ptr %7, align 8, !tbaa !44
  call void @llvm.lifetime.start.p0(i64 8, ptr %8) #13
  call void @llvm.lifetime.start.p0(i64 32, ptr %9) #13
  %11 = load ptr, ptr %5, align 8, !tbaa !107
  %12 = load ptr, ptr %6, align 8, !tbaa !4
  %13 = call i32 @git_configset_get_value(ptr noundef %11, ptr noundef %12, ptr noundef %8, ptr noundef %9)
  %14 = icmp ne i32 %13, 0
  br i1 %14, label %20, label %15

15:                                               ; preds = %3
  %16 = load ptr, ptr %6, align 8, !tbaa !4
  %17 = load ptr, ptr %8, align 8, !tbaa !4
  %18 = call i32 @git_config_int(ptr noundef %16, ptr noundef %17, ptr noundef %9)
  %19 = load ptr, ptr %7, align 8, !tbaa !44
  store i32 %18, ptr %19, align 4, !tbaa !13
  store i32 0, ptr %4, align 4
  store i32 1, ptr %10, align 4
  br label %21

20:                                               ; preds = %3
  store i32 1, ptr %4, align 4
  store i32 1, ptr %10, align 4
  br label %21

21:                                               ; preds = %20, %15
  call void @llvm.lifetime.end.p0(i64 32, ptr %9) #13
  call void @llvm.lifetime.end.p0(i64 8, ptr %8) #13
  %22 = load i32, ptr %4, align 4
  ret i32 %22
}