; Function Attrs: nounwind uwtable
define dso_local range(i32 0, 2) i32 @git_configset_get_int(ptr noundef %0, ptr noundef %1, ptr noundef writeonly captures(none) %2) local_unnamed_addr #0 {
  %4 = alloca i32, align 4
  %5 = alloca %struct.config_set_element, align 8
  %6 = alloca ptr, align 8
  %7 = alloca %struct.key_value_info, align 8
  call void @llvm.lifetime.start.p0(i64 32, ptr nonnull %7) #30
  call void @llvm.lifetime.start.p0(i64 64, ptr nonnull %5) #30
  call void @llvm.lifetime.start.p0(i64 8, ptr nonnull %6) #30
  %8 = call i32 @git_config_parse_key(ptr noundef %1, ptr noundef nonnull %6, ptr noundef null)
  %.not.i.i.i = icmp eq i32 %8, 0
  br i1 %.not.i.i.i, label %9, label %configset_find_element.exit.i.i

configset_find_element.exit.i.i:                  ; preds = %3
  call void @llvm.lifetime.end.p0(i64 8, ptr nonnull %6) #30
  call void @llvm.lifetime.end.p0(i64 64, ptr nonnull %5) #30
  br label %git_configset_get_value.exit.thread

9:                                                ; preds = %3
  %10 = load ptr, ptr %6, align 8, !tbaa !17
  %11 = tail call i32 @strhash(ptr noundef %10) #30
  %12 = getelementptr inbounds nuw i8, ptr %5, i64 8
  store i32 %11, ptr %12, align 8, !tbaa !114
  store ptr null, ptr %5, align 8, !tbaa !115
  %13 = getelementptr inbounds nuw i8, ptr %5, i64 16
  store ptr %10, ptr %13, align 8, !tbaa !108
  %14 = call ptr @hashmap_get(ptr noundef %0, ptr noundef nonnull %5, ptr noundef null) #30
  call void @free(ptr noundef %10) #30
  call void @llvm.lifetime.end.p0(i64 8, ptr nonnull %6) #30
  call void @llvm.lifetime.end.p0(i64 64, ptr nonnull %5) #30
  %.not6.i.i = icmp eq ptr %14, null
  br i1 %.not6.i.i, label %git_configset_get_value.exit.thread, label %15

15:                                               ; preds = %9
  %16 = getelementptr inbounds nuw i8, ptr %14, i64 24
  %17 = load ptr, ptr %16, align 8, !tbaa !97
  %18 = getelementptr inbounds nuw i8, ptr %14, i64 32
  %19 = load i64, ptr %18, align 8, !tbaa !100
  %20 = getelementptr %struct.string_list_item, ptr %17, i64 %19
  %21 = getelementptr i8, ptr %20, i64 -16
  %.sroa.0.0.copyload.i = load ptr, ptr %21, align 8, !tbaa !17
  %.sroa.4.0..sroa_idx.i = getelementptr i8, ptr %20, i64 -8
  %.sroa.4.0.copyload.i = load ptr, ptr %.sroa.4.0..sroa_idx.i, align 8, !tbaa !96
  call void @llvm.memcpy.p0.p0.i64(ptr noundef nonnull align 8 dereferenceable(32) %7, ptr noundef nonnull align 8 dereferenceable(32) %.sroa.4.0.copyload.i, i64 32, i1 false), !tbaa.struct !123
  call void @llvm.lifetime.start.p0(i64 4, ptr nonnull %4) #30
  %22 = call i32 @git_parse_int(ptr noundef %.sroa.0.0.copyload.i, ptr noundef nonnull %4) #30
  %.not.i = icmp eq i32 %22, 0
  br i1 %.not.i, label %23, label %git_config_int.exit

23:                                               ; preds = %15
  call fastcc void @die_bad_number(ptr noundef %1, ptr noundef %.sroa.0.0.copyload.i, ptr noundef nonnull %7) #32
  unreachable

git_config_int.exit:                              ; preds = %15
  %24 = load i32, ptr %4, align 4, !tbaa !14
  call void @llvm.lifetime.end.p0(i64 4, ptr nonnull %4) #30
  store i32 %24, ptr %2, align 4, !tbaa !14
  br label %git_configset_get_value.exit.thread

git_configset_get_value.exit.thread:              ; preds = %configset_find_element.exit.i.i, %9, %git_config_int.exit
  %.0 = phi i32 [ 0, %git_config_int.exit ], [ 1, %9 ], [ 1, %configset_find_element.exit.i.i ]
  call void @llvm.lifetime.end.p0(i64 32, ptr nonnull %7) #30
  ret i32 %.0
}